target datalayout = "e-m:e-p270:32:32-p271:32:32-p272:64:64-i64:64-i128:128-f80:128-n8:16:32:64-S128"
target triple = "x86_64-pc-linux-gnu"

; Function Attrs: nounwind uwtable
define internal ptr @unfold_and_compact_mime_header(ptr noundef %0, ptr noundef %1, ptr noundef %2) #0 {
  %4 = alloca ptr, align 8
  %5 = alloca ptr, align 8
  %6 = alloca ptr, align 8
  %7 = alloca ptr, align 8
  %8 = alloca ptr, align 8
  %9 = alloca i8, align 1
  %10 = alloca ptr, align 8
  %11 = alloca ptr, align 8
  %12 = alloca i8, align 1
  %13 = alloca i8, align 1
  %14 = alloca i32, align 4
  store ptr %0, ptr %5, align 8
  store ptr %1, ptr %6, align 8
  store ptr %2, ptr %7, align 8
  %15 = load ptr, ptr %6, align 8
  store ptr %15, ptr %8, align 8
  store i8 0, ptr %12, align 1
  store i8 0, ptr %13, align 1
  store i32 -1, ptr %14, align 4
  %16 = load ptr, ptr %6, align 8
  %17 = icmp ne ptr %16, null
  br i1 %17, label %19, label %18

18:                                               ; preds = %3
  store ptr null, ptr %4, align 8
  br label %230

19:                                               ; preds = %3
  %20 = load ptr, ptr %8, align 8
  %21 = load i8, ptr %20, align 1
  store i8 %21, ptr %9, align 1
  %22 = load ptr, ptr %5, align 8
  %23 = load ptr, ptr %6, align 8
  %24 = call i64 @strlen(ptr noundef %23) #5
  %25 = add i64 %24, 1
  %26 = call noalias ptr @wmem_alloc(ptr noundef %22, i64 noundef %25)
  store ptr %26, ptr %10, align 8
  %27 = load ptr, ptr %10, align 8
  store ptr %27, ptr %11, align 8
  br label %28

28:                                               ; preds = %224, %19
  %29 = load i8, ptr %9, align 1
  %30 = icmp ne i8 %29, 0
  br i1 %30, label %31, label %225

31:                                               ; preds = %28
  %32 = load i8, ptr %9, align 1
  %33 = sext i8 %32 to i32
  %34 = icmp eq i32 %33, 58
  br i1 %34, label %35, label %51

35:                                               ; preds = %31
  store i8 0, ptr %13, align 1
  %36 = load i32, ptr %14, align 4
  %37 = icmp eq i32 %36, -1
  br i1 %37, label %38, label %45

38:                                               ; preds = %35
  %39 = load ptr, ptr %11, align 8
  %40 = load ptr, ptr %10, align 8
  %41 = ptrtoint ptr %39 to i64
  %42 = ptrtoint ptr %40 to i64
  %43 = sub i64 %41, %42
  %44 = trunc i64 %43 to i32
  store i32 %44, ptr %14, align 4
  br label %45

45:                                               ; preds = %38, %35
  %46 = load i8, ptr %9, align 1
  store i8 %46, ptr %12, align 1
  %47 = load ptr, ptr %11, align 8
  %48 = getelementptr i8, ptr %47, i32 1
  store ptr %48, ptr %11, align 8
  store i8 %46, ptr %47, align 1
  %49 = load ptr, ptr %8, align 8
  %50 = getelementptr i8, ptr %49, i32 1
  store ptr %50, ptr %8, align 8
  br label %218

51:                                               ; preds = %31
  %52 = load i8, ptr %9, align 1
  %53 = sext i8 %52 to i32
  %54 = icmp eq i32 %53, 59
  br i1 %54, label %63, label %55

55:                                               ; preds = %51
  %56 = load i8, ptr %9, align 1
  %57 = sext i8 %56 to i32
  %58 = icmp eq i32 %57, 44
  br i1 %58, label %63, label %59

59:                                               ; preds = %55
  %60 = load i8, ptr %9, align 1
  %61 = sext i8 %60 to i32
  %62 = icmp eq i32 %61, 61
  br i1 %62, label %63, label %69

63:                                               ; preds = %59, %55, %51
  store i8 0, ptr %13, align 1
  %64 = load i8, ptr %9, align 1
  store i8 %64, ptr %12, align 1
  %65 = load ptr, ptr %11, align 8
  %66 = getelementptr i8, ptr %65, i32 1
  store ptr %66, ptr %11, align 8
  store i8 %64, ptr %65, align 1
  %67 = load ptr, ptr %8, align 8
  %68 = getelementptr i8, ptr %67, i32 1
  store ptr %68, ptr %8, align 8
  br label %217

69:                                               ; preds = %59
  %70 = load i8, ptr %9, align 1
  %71 = sext i8 %70 to i32
  %72 = icmp eq i32 %71, 32
  br i1 %72, label %77, label %73

73:                                               ; preds = %69
  %74 = load i8, ptr %9, align 1
  %75 = sext i8 %74 to i32
  %76 = icmp eq i32 %75, 9
  br i1 %76, label %77, label %80

77:                                               ; preds = %73, %69
  store i8 1, ptr %13, align 1
  %78 = load ptr, ptr %8, align 8
  %79 = getelementptr i8, ptr %78, i32 1
  store ptr %79, ptr %8, align 8
  br label %216

80:                                               ; preds = %73
  %81 = load i8, ptr %9, align 1
  %82 = sext i8 %81 to i32
  %83 = icmp eq i32 %82, 10
  br i1 %83, label %84, label %104

84:                                               ; preds = %80
  store i8 0, ptr %13, align 1
  %85 = load ptr, ptr %8, align 8
  %86 = getelementptr i8, ptr %85, i64 1
  %87 = load i8, ptr %86, align 1
  store i8 %87, ptr %9, align 1
  %88 = icmp ne i8 %87, 0
  br i1 %88, label %89, label %103

89:                                               ; preds = %84
  %90 = load i8, ptr %9, align 1
  %91 = sext i8 %90 to i32
  %92 = icmp eq i32 %91, 32
  br i1 %92, label %97, label %93

93:                                               ; preds = %89
  %94 = load i8, ptr %9, align 1
  %95 = sext i8 %94 to i32
  %96 = icmp eq i32 %95, 9
  br i1 %96, label %97, label %100

97:                                               ; preds = %93, %89
  store i8 1, ptr %13, align 1
  %98 = load ptr, ptr %8, align 8
  %99 = getelementptr i8, ptr %98, i64 2
  store ptr %99, ptr %8, align 8
  br label %102

100:                                              ; preds = %93
  store i8 0, ptr %9, align 1
  %101 = load ptr, ptr %11, align 8
  store i8 0, ptr %101, align 1
  br label %102

102:                                              ; preds = %100, %97
  br label %103

103:                                              ; preds = %102, %84
  br label %215

104:                                              ; preds = %80
  %105 = load i8, ptr %9, align 1
  %106 = sext i8 %105 to i32
  %107 = icmp eq i32 %106, 13
  br i1 %107, label %108, label %153

108:                                              ; preds = %104
  store i8 0, ptr %13, align 1
  %109 = load ptr, ptr %8, align 8
  %110 = getelementptr i8, ptr %109, i64 1
  %111 = load i8, ptr %110, align 1
  store i8 %111, ptr %9, align 1
  %112 = icmp ne i8 %111, 0
  br i1 %112, label %113, label %152

113:                                              ; preds = %108
  %114 = load i8, ptr %9, align 1
  %115 = sext i8 %114 to i32
  %116 = icmp eq i32 %115, 10
  br i1 %116, label %117, label %137

117:                                              ; preds = %113
  %118 = load ptr, ptr %8, align 8
  %119 = getelementptr i8, ptr %118, i64 2
  %120 = load i8, ptr %119, align 1
  store i8 %120, ptr %9, align 1
  %121 = icmp ne i8 %120, 0
  br i1 %121, label %122, label %136

122:                                              ; preds = %117
  %123 = load i8, ptr %9, align 1
  %124 = sext i8 %123 to i32
  %125 = icmp eq i32 %124, 32
  br i1 %125, label %130, label %126

126:                                              ; preds = %122
  %127 = load i8, ptr %9, align 1
  %128 = sext i8 %127 to i32
  %129 = icmp eq i32 %128, 9
  br i1 %129, label %130, label %133

130:                                              ; preds = %126, %122
  store i8 1, ptr %13, align 1
  %131 = load ptr, ptr %8, align 8
  %132 = getelementptr i8, ptr %131, i64 3
  store ptr %132, ptr %8, align 8
  br label %135

133:                                              ; preds = %126
  store i8 0, ptr %9, align 1
  %134 = load ptr, ptr %11, align 8
  store i8 0, ptr %134, align 1
  br label %135

135:                                              ; preds = %133, %130
  br label %136

136:                                              ; preds = %135, %117
  br label %151

137:                                              ; preds = %113
  %138 = load i8, ptr %9, align 1
  %139 = sext i8 %138 to i32
  %140 = icmp eq i32 %139, 32
  br i1 %140, label %145, label %141

141:                                              ; preds = %137
  %142 = load i8, ptr %9, align 1
  %143 = sext i8 %142 to i32
  %144 = icmp eq i32 %143, 9
  br i1 %144, label %145, label %148

145:                                              ; preds = %141, %137
  store i8 1, ptr %13, align 1
  %146 = load ptr, ptr %8, align 8
  %147 = getelementptr i8, ptr %146, i64 2
  store ptr %147, ptr %8, align 8
  br label %150

148:                                              ; preds = %141
  store i8 0, ptr %9, align 1
  %149 = load ptr, ptr %11, align 8
  store i8 0, ptr %149, align 1
  br label %150

150:                                              ; preds = %148, %145
  br label %151

151:                                              ; preds = %150, %136
  br label %152

152:                                              ; preds = %151, %108
  br label %214

153:                                              ; preds = %104
  %154 = load i8, ptr %9, align 1
  %155 = sext i8 %154 to i32
  %156 = icmp eq i32 %155, 34
  br i1 %156, label %157, label %196

157:                                              ; preds = %153
  store i8 0, ptr %13, align 1
  %158 = load i8, ptr %9, align 1
  %159 = load ptr, ptr %11, align 8
  %160 = getelementptr i8, ptr %159, i32 1
  store ptr %160, ptr %11, align 8
  store i8 %158, ptr %159, align 1
  br label %161

161:                                              ; preds = %187, %157
  %162 = load i8, ptr %9, align 1
  %163 = icmp ne i8 %162, 0
  br i1 %163, label %164, label %188

164:                                              ; preds = %161
  %165 = load ptr, ptr %8, align 8
  %166 = getelementptr i8, ptr %165, i32 1
  store ptr %166, ptr %8, align 8
  %167 = load i8, ptr %166, align 1
  %168 = load ptr, ptr %11, align 8
  %169 = getelementptr i8, ptr %168, i32 1
  store ptr %169, ptr %11, align 8
  store i8 %167, ptr %168, align 1
  store i8 %167, ptr %9, align 1
  %170 = load i8, ptr %9, align 1
  %171 = sext i8 %170 to i32
  %172 = icmp eq i32 %171, 92
  br i1 %172, label %173, label %179

173:                                              ; preds = %164
  %174 = load ptr, ptr %8, align 8
  %175 = getelementptr i8, ptr %174, i32 1
  store ptr %175, ptr %8, align 8
  %176 = load i8, ptr %175, align 1
  %177 = load ptr, ptr %11, align 8
  %178 = getelementptr i8, ptr %177, i32 1
  store ptr %178, ptr %11, align 8
  store i8 %176, ptr %177, align 1
  store i8 %176, ptr %9, align 1
  br label %187

179:                                              ; preds = %164
  %180 = load i8, ptr %9, align 1
  %181 = sext i8 %180 to i32
  %182 = icmp eq i32 %181, 34
  br i1 %182, label %183, label %186

183:                                              ; preds = %179
  %184 = load ptr, ptr %8, align 8
  %185 = getelementptr i8, ptr %184, i32 1
  store ptr %185, ptr %8, align 8
  br label %188

186:                                              ; preds = %179
  br label %187

187:                                              ; preds = %186, %173
  br label %161, !llvm.loop !7

188:                                              ; preds = %183, %161
  %189 = load i8, ptr %9, align 1
  %190 = sext i8 %189 to i32
  %191 = icmp eq i32 %190, 0
  br i1 %191, label %192, label %195

192:                                              ; preds = %188
  %193 = load ptr, ptr %11, align 8
  %194 = getelementptr i8, ptr %193, i32 -1
  store ptr %194, ptr %11, align 8
  br label %195

195:                                              ; preds = %192, %188
  br label %213

196:                                              ; preds = %153
  %197 = load i8, ptr %12, align 1
  %198 = icmp ne i8 %197, 0
  br i1 %198, label %199, label %200

199:                                              ; preds = %196
  store i8 0, ptr %12, align 1
  br label %207

200:                                              ; preds = %196
  %201 = load i8, ptr %13, align 1
  %202 = icmp ne i8 %201, 0
  br i1 %202, label %203, label %206

203:                                              ; preds = %200
  %204 = load ptr, ptr %11, align 8
  %205 = getelementptr i8, ptr %204, i32 1
  store ptr %205, ptr %11, align 8
  store i8 32, ptr %204, align 1
  br label %206

206:                                              ; preds = %203, %200
  br label %207

207:                                              ; preds = %206, %199
  store i8 0, ptr %13, align 1
  %208 = load i8, ptr %9, align 1
  %209 = load ptr, ptr %11, align 8
  %210 = getelementptr i8, ptr %209, i32 1
  store ptr %210, ptr %11, align 8
  store i8 %208, ptr %209, align 1
  %211 = load ptr, ptr %8, align 8
  %212 = getelementptr i8, ptr %211, i32 1
  store ptr %212, ptr %8, align 8
  br label %213

213:                                              ; preds = %207, %195
  br label %214

214:                                              ; preds = %213, %152
  br label %215

215:                                              ; preds = %214, %103
  br label %216

216:                                              ; preds = %215, %77
  br label %217

217:                                              ; preds = %216, %63
  br label %218

218:                                              ; preds = %217, %45
  %219 = load i8, ptr %9, align 1
  %220 = icmp ne i8 %219, 0
  br i1 %220, label %221, label %224

221:                                              ; preds = %218
  %222 = load ptr, ptr %8, align 8
  %223 = load i8, ptr %222, align 1
  store i8 %223, ptr %9, align 1
  br label %224

224:                                              ; preds = %221, %218
  br label %28, !llvm.loop !8

225:                                              ; preds = %28
  %226 = load ptr, ptr %11, align 8
  store i8 0, ptr %226, align 1
  %227 = load i32, ptr %14, align 4
  %228 = load ptr, ptr %7, align 8
  store i32 %227, ptr %228, align 4
  %229 = load ptr, ptr %10, align 8
  store ptr %229, ptr %4, align 8
  br label %230

230:                                              ; preds = %225, %18
  %231 = load ptr, ptr %4, align 8
  ret ptr %231
}