; Function Attrs: nounwind uwtable
define internal fastcc ptr @unfold_and_compact_mime_header(ptr noundef %0, ptr noundef readonly %1, ptr noundef nonnull writeonly captures(none) %2) unnamed_addr #0 {
  %.not = icmp eq ptr %1, null
  br i1 %.not, label %62, label %4

4:                                                ; preds = %3
  %5 = load i8, ptr %1, align 1
  %6 = tail call i64 @strlen(ptr noundef nonnull dereferenceable(1) %1) #8
  %7 = add i64 %6, 1
  %8 = tail call noalias ptr @wmem_alloc(ptr noundef %0, i64 noundef %7) #7
  %9 = ptrtoint ptr %8 to i64
  br label %.thread139

.thread139:                                       ; preds = %.thread139.backedge, %4
  %.098 = phi ptr [ %1, %4 ], [ %.098.be, %.thread139.backedge ]
  %.092 = phi i8 [ %5, %4 ], [ %.092.be, %.thread139.backedge ]
  %.088 = phi ptr [ %8, %4 ], [ %.088.be, %.thread139.backedge ]
  %.085 = phi i8 [ 0, %4 ], [ %.085.be, %.thread139.backedge ]
  %.083 = phi i8 [ 0, %4 ], [ %.083.be, %.thread139.backedge ]
  %.0 = phi i32 [ -1, %4 ], [ %.0.be, %.thread139.backedge ]
  switch i8 %.092, label %52 [
    i8 0, label %61
    i8 58, label %10
    i8 61, label %17
    i8 59, label %17
    i8 44, label %17
    i8 32, label %20
    i8 9, label %20
    i8 10, label %22
    i8 13, label %28
    i8 34, label %40
  ]

10:                                               ; preds = %.thread139
  %11 = icmp eq i32 %.0, -1
  %12 = ptrtoint ptr %.088 to i64
  %13 = sub i64 %12, %9
  %14 = trunc i64 %13 to i32
  %.1 = select i1 %11, i32 %14, i32 %.0
  %15 = getelementptr i8, ptr %.088, i64 1
  store i8 58, ptr %.088, align 1
  %16 = getelementptr i8, ptr %.098, i64 1
  br label %.thread

17:                                               ; preds = %.thread139, %.thread139, %.thread139
  %18 = getelementptr i8, ptr %.088, i64 1
  store i8 %.092, ptr %.088, align 1
  %19 = getelementptr i8, ptr %.098, i64 1
  br label %.thread

20:                                               ; preds = %.thread139, %.thread139
  %21 = getelementptr i8, ptr %.098, i64 1
  br label %.thread

22:                                               ; preds = %.thread139
  %23 = getelementptr i8, ptr %.098, i64 1
  %24 = load i8, ptr %23, align 1
  switch i8 %24, label %27 [
    i8 0, label %.thread139.backedge
    i8 32, label %25
    i8 9, label %25
  ]

25:                                               ; preds = %22, %22
  %26 = getelementptr i8, ptr %.098, i64 2
  br label %.thread

27:                                               ; preds = %22
  store i8 0, ptr %.088, align 1
  br label %.thread139.backedge

28:                                               ; preds = %.thread139
  %29 = getelementptr i8, ptr %.098, i64 1
  %30 = load i8, ptr %29, align 1
  switch i8 %30, label %39 [
    i8 0, label %.thread139.backedge
    i8 10, label %31
    i8 32, label %37
    i8 9, label %37
  ]

.thread139.backedge:                              ; preds = %28, %39, %31, %36, %22, %27, %.thread146, %.thread
  %.098.be = phi ptr [ %.199128, %.thread ], [ %.4102, %.thread146 ], [ %.098, %27 ], [ %.098, %22 ], [ %.098, %36 ], [ %.098, %31 ], [ %.098, %39 ], [ %.098, %28 ]
  %.092.be = phi i8 [ %60, %.thread ], [ 0, %.thread146 ], [ 0, %27 ], [ %24, %22 ], [ 0, %36 ], [ %33, %31 ], [ 0, %39 ], [ %30, %28 ]
  %.088.be = phi ptr [ %.189130, %.thread ], [ %42, %.thread146 ], [ %.088, %27 ], [ %.088, %22 ], [ %.088, %36 ], [ %.088, %31 ], [ %.088, %39 ], [ %.088, %28 ]
  %.085.be = phi i8 [ %.186132, %.thread ], [ %.085, %.thread146 ], [ %.085, %27 ], [ %.085, %22 ], [ %.085, %36 ], [ %.085, %31 ], [ %.085, %39 ], [ %.085, %28 ]
  %.083.be = phi i8 [ %.184134, %.thread ], [ 0, %.thread146 ], [ 0, %27 ], [ %24, %22 ], [ 0, %36 ], [ %33, %31 ], [ 0, %39 ], [ %30, %28 ]
  %.0.be = phi i32 [ %.2136, %.thread ], [ %.0, %.thread146 ], [ %.0, %27 ], [ %.0, %22 ], [ %.0, %36 ], [ %.0, %31 ], [ %.0, %39 ], [ %.0, %28 ]
  br label %.thread139, !llvm.loop !10

31:                                               ; preds = %28
  %32 = getelementptr i8, ptr %.098, i64 2
  %33 = load i8, ptr %32, align 1
  switch i8 %33, label %36 [
    i8 0, label %.thread139.backedge
    i8 32, label %34
    i8 9, label %34
  ]

34:                                               ; preds = %31, %31
  %35 = getelementptr i8, ptr %.098, i64 3
  br label %.thread

36:                                               ; preds = %31
  store i8 0, ptr %.088, align 1
  br label %.thread139.backedge

37:                                               ; preds = %28, %28
  %38 = getelementptr i8, ptr %.098, i64 2
  br label %.thread

39:                                               ; preds = %28
  store i8 0, ptr %.088, align 1
  br label %.thread139.backedge

40:                                               ; preds = %.thread139
  %41 = getelementptr i8, ptr %.088, i64 1
  store i8 34, ptr %.088, align 1
  br label %43

.thread146:                                       ; preds = %51
  %42 = getelementptr i8, ptr %.4, i64 -1
  br label %.thread139.backedge

43:                                               ; preds = %40, %51
  %.290153 = phi ptr [ %41, %40 ], [ %.4, %51 ]
  %.2100152 = phi ptr [ %.098, %40 ], [ %.4102, %51 ]
  %44 = getelementptr i8, ptr %.2100152, i64 1
  %45 = load i8, ptr %44, align 1
  %46 = getelementptr i8, ptr %.290153, i64 1
  store i8 %45, ptr %.290153, align 1
  switch i8 %45, label %51 [
    i8 92, label %47
    i8 34, label %58
  ]

47:                                               ; preds = %43
  %48 = getelementptr i8, ptr %.2100152, i64 2
  %49 = load i8, ptr %48, align 1
  %50 = getelementptr i8, ptr %.290153, i64 2
  store i8 %49, ptr %46, align 1
  br label %51

51:                                               ; preds = %43, %47
  %.4102 = phi ptr [ %48, %47 ], [ %44, %43 ]
  %.496 = phi i8 [ %49, %47 ], [ %45, %43 ]
  %.4 = phi ptr [ %50, %47 ], [ %46, %43 ]
  %.not116 = icmp eq i8 %.496, 0
  br i1 %.not116, label %.thread146, label %43, !llvm.loop !11

52:                                               ; preds = %.thread139
  %.not114 = icmp ne i8 %.085, 0
  %.not115 = icmp eq i8 %.083, 0
  %or.cond = or i1 %.not114, %.not115
  br i1 %or.cond, label %55, label %53

53:                                               ; preds = %52
  %54 = getelementptr i8, ptr %.088, i64 1
  store i8 32, ptr %.088, align 1
  br label %55

55:                                               ; preds = %52, %53
  %.5 = phi ptr [ %54, %53 ], [ %.088, %52 ]
  %56 = getelementptr i8, ptr %.5, i64 1
  store i8 %.092, ptr %.5, align 1
  %57 = getelementptr i8, ptr %.098, i64 1
  br label %.thread

58:                                               ; preds = %43
  %59 = getelementptr i8, ptr %.2100152, i64 2
  br label %.thread

.thread:                                          ; preds = %55, %37, %34, %25, %20, %17, %10, %58
  %.2136 = phi i32 [ %.0, %58 ], [ %.0, %55 ], [ %.0, %37 ], [ %.0, %34 ], [ %.0, %25 ], [ %.0, %20 ], [ %.0, %17 ], [ %.1, %10 ]
  %.184134 = phi i8 [ 0, %58 ], [ 0, %55 ], [ 1, %37 ], [ 1, %34 ], [ 1, %25 ], [ 1, %20 ], [ 0, %17 ], [ 0, %10 ]
  %.186132 = phi i8 [ %.085, %58 ], [ 0, %55 ], [ %.085, %37 ], [ %.085, %34 ], [ %.085, %25 ], [ %.085, %20 ], [ %.092, %17 ], [ 58, %10 ]
  %.189130 = phi ptr [ %46, %58 ], [ %56, %55 ], [ %.088, %37 ], [ %.088, %34 ], [ %.088, %25 ], [ %.088, %20 ], [ %18, %17 ], [ %15, %10 ]
  %.199128 = phi ptr [ %59, %58 ], [ %57, %55 ], [ %38, %37 ], [ %35, %34 ], [ %26, %25 ], [ %21, %20 ], [ %19, %17 ], [ %16, %10 ]
  %60 = load i8, ptr %.199128, align 1
  br label %.thread139.backedge

61:                                               ; preds = %.thread139
  store i8 0, ptr %.088, align 1
  store i32 %.0, ptr %2, align 4
  br label %62

62:                                               ; preds = %3, %61
  %.091 = phi ptr [ %8, %61 ], [ null, %3 ]
  ret ptr %.091
}